target datalayout = "e-m:e-p270:32:32-p271:32:32-p272:64:64-i64:64-i128:128-f80:128-n8:16:32:64-S128"
target triple = "x86_64-pc-linux-gnu"

%struct.FT_BBox_ = type { i64, i64, i64, i64 }
%struct.TBBox_Rec_ = type { %struct.FT_Vector_, %struct.FT_BBox_ }
%struct.FT_Vector_ = type { i64, i64 }

; Function Attrs: nounwind uwtable
define internal i32 @BBox_Cubic_To(ptr noundef %0, ptr noundef %1, ptr noundef %2, ptr noundef %3) #0 {
  %5 = alloca ptr, align 8
  %6 = alloca ptr, align 8
  %7 = alloca ptr, align 8
  %8 = alloca ptr, align 8
  %9 = alloca ptr, align 8
  store ptr %0, ptr %5, align 8
  store ptr %1, ptr %6, align 8
  store ptr %2, ptr %7, align 8
  store ptr %3, ptr %8, align 8
  %10 = load ptr, ptr %8, align 8
  store ptr %10, ptr %9, align 8
  %11 = load ptr, ptr %5, align 8
  %12 = getelementptr inbounds %struct.FT_Vector_, ptr %11, i32 0, i32 0
  %13 = load i64, ptr %12, align 8
  %14 = load ptr, ptr %9, align 8
  %15 = getelementptr inbounds %struct.TBBox_Rec_, ptr %14, i32 0, i32 1
  %16 = getelementptr inbounds %struct.FT_BBox_, ptr %15, i32 0, i32 0
  %17 = load i64, ptr %16, align 8
  %18 = icmp slt i64 %13, %17
  br i1 %18, label %46, label %19

19:                                               ; preds = %4
  %20 = load ptr, ptr %5, align 8
  %21 = getelementptr inbounds %struct.FT_Vector_, ptr %20, i32 0, i32 0
  %22 = load i64, ptr %21, align 8
  %23 = load ptr, ptr %9, align 8
  %24 = getelementptr inbounds %struct.TBBox_Rec_, ptr %23, i32 0, i32 1
  %25 = getelementptr inbounds %struct.FT_BBox_, ptr %24, i32 0, i32 2
  %26 = load i64, ptr %25, align 8
  %27 = icmp sgt i64 %22, %26
  br i1 %27, label %46, label %28

28:                                               ; preds = %19
  %29 = load ptr, ptr %6, align 8
  %30 = getelementptr inbounds %struct.FT_Vector_, ptr %29, i32 0, i32 0
  %31 = load i64, ptr %30, align 8
  %32 = load ptr, ptr %9, align 8
  %33 = getelementptr inbounds %struct.TBBox_Rec_, ptr %32, i32 0, i32 1
  %34 = getelementptr inbounds %struct.FT_BBox_, ptr %33, i32 0, i32 0
  %35 = load i64, ptr %34, align 8
  %36 = icmp slt i64 %31, %35
  br i1 %36, label %46, label %37

37:                                               ; preds = %28
  %38 = load ptr, ptr %6, align 8
  %39 = getelementptr inbounds %struct.FT_Vector_, ptr %38, i32 0, i32 0
  %40 = load i64, ptr %39, align 8
  %41 = load ptr, ptr %9, align 8
  %42 = getelementptr inbounds %struct.TBBox_Rec_, ptr %41, i32 0, i32 1
  %43 = getelementptr inbounds %struct.FT_BBox_, ptr %42, i32 0, i32 2
  %44 = load i64, ptr %43, align 8
  %45 = icmp sgt i64 %40, %44
  br i1 %45, label %46, label %66

46:                                               ; preds = %37, %28, %19, %4
  %47 = load ptr, ptr %9, align 8
  %48 = getelementptr inbounds %struct.TBBox_Rec_, ptr %47, i32 0, i32 0
  %49 = getelementptr inbounds %struct.FT_Vector_, ptr %48, i32 0, i32 0
  %50 = load i64, ptr %49, align 8
  %51 = load ptr, ptr %5, align 8
  %52 = getelementptr inbounds %struct.FT_Vector_, ptr %51, i32 0, i32 0
  %53 = load i64, ptr %52, align 8
  %54 = load ptr, ptr %6, align 8
  %55 = getelementptr inbounds %struct.FT_Vector_, ptr %54, i32 0, i32 0
  %56 = load i64, ptr %55, align 8
  %57 = load ptr, ptr %7, align 8
  %58 = getelementptr inbounds %struct.FT_Vector_, ptr %57, i32 0, i32 0
  %59 = load i64, ptr %58, align 8
  %60 = load ptr, ptr %9, align 8
  %61 = getelementptr inbounds %struct.TBBox_Rec_, ptr %60, i32 0, i32 1
  %62 = getelementptr inbounds %struct.FT_BBox_, ptr %61, i32 0, i32 0
  %63 = load ptr, ptr %9, align 8
  %64 = getelementptr inbounds %struct.TBBox_Rec_, ptr %63, i32 0, i32 1
  %65 = getelementptr inbounds %struct.FT_BBox_, ptr %64, i32 0, i32 2
  call void @BBox_Cubic_Check(i64 noundef %50, i64 noundef %53, i64 noundef %56, i64 noundef %59, ptr noundef %62, ptr noundef %65)
  br label %66

66:                                               ; preds = %46, %37
  %67 = load ptr, ptr %5, align 8
  %68 = getelementptr inbounds %struct.FT_Vector_, ptr %67, i32 0, i32 1
  %69 = load i64, ptr %68, align 8
  %70 = load ptr, ptr %9, align 8
  %71 = getelementptr inbounds %struct.TBBox_Rec_, ptr %70, i32 0, i32 1
  %72 = getelementptr inbounds %struct.FT_BBox_, ptr %71, i32 0, i32 1
  %73 = load i64, ptr %72, align 8
  %74 = icmp slt i64 %69, %73
  br i1 %74, label %102, label %75

75:                                               ; preds = %66
  %76 = load ptr, ptr %5, align 8
  %77 = getelementptr inbounds %struct.FT_Vector_, ptr %76, i32 0, i32 1
  %78 = load i64, ptr %77, align 8
  %79 = load ptr, ptr %9, align 8
  %80 = getelementptr inbounds %struct.TBBox_Rec_, ptr %79, i32 0, i32 1
  %81 = getelementptr inbounds %struct.FT_BBox_, ptr %80, i32 0, i32 3
  %82 = load i64, ptr %81, align 8
  %83 = icmp sgt i64 %78, %82
  br i1 %83, label %102, label %84

84:                                               ; preds = %75
  %85 = load ptr, ptr %6, align 8
  %86 = getelementptr inbounds %struct.FT_Vector_, ptr %85, i32 0, i32 1
  %87 = load i64, ptr %86, align 8
  %88 = load ptr, ptr %9, align 8
  %89 = getelementptr inbounds %struct.TBBox_Rec_, ptr %88, i32 0, i32 1
  %90 = getelementptr inbounds %struct.FT_BBox_, ptr %89, i32 0, i32 1
  %91 = load i64, ptr %90, align 8
  %92 = icmp slt i64 %87, %91
  br i1 %92, label %102, label %93

93:                                               ; preds = %84
  %94 = load ptr, ptr %6, align 8
  %95 = getelementptr inbounds %struct.FT_Vector_, ptr %94, i32 0, i32 1
  %96 = load i64, ptr %95, align 8
  %97 = load ptr, ptr %9, align 8
  %98 = getelementptr inbounds %struct.TBBox_Rec_, ptr %97, i32 0, i32 1
  %99 = getelementptr inbounds %struct.FT_BBox_, ptr %98, i32 0, i32 3
  %100 = load i64, ptr %99, align 8
  %101 = icmp sgt i64 %96, %100
  br i1 %101, label %102, label %122

102:                                              ; preds = %93, %84, %75, %66
  %103 = load ptr, ptr %9, align 8
  %104 = getelementptr inbounds %struct.TBBox_Rec_, ptr %103, i32 0, i32 0
  %105 = getelementptr inbounds %struct.FT_Vector_, ptr %104, i32 0, i32 1
  %106 = load i64, ptr %105, align 8
  %107 = load ptr, ptr %5, align 8
  %108 = getelementptr inbounds %struct.FT_Vector_, ptr %107, i32 0, i32 1
  %109 = load i64, ptr %108, align 8
  %110 = load ptr, ptr %6, align 8
  %111 = getelementptr inbounds %struct.FT_Vector_, ptr %110, i32 0, i32 1
  %112 = load i64, ptr %111, align 8
  %113 = load ptr, ptr %7, align 8
  %114 = getelementptr inbounds %struct.FT_Vector_, ptr %113, i32 0, i32 1
  %115 = load i64, ptr %114, align 8
  %116 = load ptr, ptr %9, align 8
  %117 = getelementptr inbounds %struct.TBBox_Rec_, ptr %116, i32 0, i32 1
  %118 = getelementptr inbounds %struct.FT_BBox_, ptr %117, i32 0, i32 1
  %119 = load ptr, ptr %9, align 8
  %120 = getelementptr inbounds %struct.TBBox_Rec_, ptr %119, i32 0, i32 1
  %121 = getelementptr inbounds %struct.FT_BBox_, ptr %120, i32 0, i32 3
  call void @BBox_Cubic_Check(i64 noundef %106, i64 noundef %109, i64 noundef %112, i64 noundef %115, ptr noundef %118, ptr noundef %121)
  br label %122

122:                                              ; preds = %102, %93
  %123 = load ptr, ptr %9, align 8
  %124 = getelementptr inbounds %struct.TBBox_Rec_, ptr %123, i32 0, i32 0
  %125 = load ptr, ptr %7, align 8
  call void @llvm.memcpy.p0.p0.i64(ptr align 8 %124, ptr align 8 %125, i64 16, i1 false)
  ret i32 0
}