; Function Attrs: nofree norecurse nosync nounwind memory(argmem: readwrite) uwtable
define internal noundef i32 @BBox_Cubic_To(ptr nocapture noundef readonly %0, ptr nocapture noundef readonly %1, ptr nocapture noundef readonly %2, ptr nocapture noundef %3) #4 {
  %5 = load i64, ptr %0, align 8
  %6 = getelementptr inbounds i8, ptr %3, i64 16
  %7 = load i64, ptr %6, align 8
  %8 = icmp slt i64 %5, %7
  br i1 %8, label %._crit_edge, label %9

._crit_edge:                                      ; preds = %4
  %.pre = load i64, ptr %1, align 8
  br label %16

9:                                                ; preds = %4
  %10 = getelementptr inbounds i8, ptr %3, i64 32
  %11 = load i64, ptr %10, align 8
  %12 = icmp sgt i64 %5, %11
  %.pre39 = load i64, ptr %1, align 8
  br i1 %12, label %16, label %13

13:                                               ; preds = %9
  %14 = icmp slt i64 %.pre39, %7
  %15 = icmp sgt i64 %.pre39, %11
  %or.cond = or i1 %14, %15
  br i1 %or.cond, label %16, label %21

16:                                               ; preds = %._crit_edge, %13, %9
  %17 = phi i64 [ %.pre, %._crit_edge ], [ %.pre39, %13 ], [ %.pre39, %9 ]
  %18 = load i64, ptr %3, align 8
  %19 = load i64, ptr %2, align 8
  %20 = getelementptr inbounds i8, ptr %3, i64 32
  tail call fastcc void @BBox_Cubic_Check(i64 noundef %18, i64 noundef %5, i64 noundef %17, i64 noundef %19, ptr noundef nonnull %6, ptr noundef nonnull %20)
  br label %21

21:                                               ; preds = %13, %16
  %22 = getelementptr inbounds i8, ptr %0, i64 8
  %23 = load i64, ptr %22, align 8
  %24 = getelementptr inbounds i8, ptr %3, i64 24
  %25 = load i64, ptr %24, align 8
  %26 = icmp slt i64 %23, %25
  br i1 %26, label %36, label %27

27:                                               ; preds = %21
  %28 = getelementptr inbounds i8, ptr %3, i64 40
  %29 = load i64, ptr %28, align 8
  %30 = icmp sgt i64 %23, %29
  br i1 %30, label %36, label %31

31:                                               ; preds = %27
  %32 = getelementptr inbounds i8, ptr %1, i64 8
  %33 = load i64, ptr %32, align 8
  %34 = icmp slt i64 %33, %25
  %35 = icmp sgt i64 %33, %29
  %or.cond38 = or i1 %34, %35
  br i1 %or.cond38, label %36, label %44

36:                                               ; preds = %31, %27, %21
  %37 = getelementptr inbounds i8, ptr %3, i64 8
  %38 = load i64, ptr %37, align 8
  %39 = getelementptr inbounds i8, ptr %1, i64 8
  %40 = load i64, ptr %39, align 8
  %41 = getelementptr inbounds i8, ptr %2, i64 8
  %42 = load i64, ptr %41, align 8
  %43 = getelementptr inbounds i8, ptr %3, i64 40
  tail call fastcc void @BBox_Cubic_Check(i64 noundef %38, i64 noundef %23, i64 noundef %40, i64 noundef %42, ptr noundef nonnull %24, ptr noundef nonnull %43)
  br label %44

44:                                               ; preds = %31, %36
  tail call void @llvm.memcpy.p0.p0.i64(ptr noundef nonnull align 8 dereferenceable(16) %3, ptr noundef nonnull align 8 dereferenceable(16) %2, i64 16, i1 false)
  ret i32 0
}